target datalayout = "e-m:e-p270:32:32-p271:32:32-p272:64:64-i64:64-i128:128-f80:128-n8:16:32:64-S128"
target triple = "x86_64-unknown-linux-gnu"

%class.params_ref = type { ptr }
%class.anon.94 = type { i8 }

@.str.31 = private unnamed_addr constant [24 x i8] c"pb2bv_all_clauses_limit\00", align 1
@.str.32 = private unnamed_addr constant [10 x i8] c"ite_extra\00", align 1
@.str.37 = private unnamed_addr constant [15 x i8] c"lia2sat-tactic\00", align 1

; Function Attrs: mustprogress nounwind uwtable
define linkonce_odr hidden noundef ptr @_ZZ25mk_propagate_ineqs_tacticR11ast_managerRK10params_refENKUlRT_RT0_RT1_E_cvPFP25dependent_expr_simplifierS5_S7_S9_EIS_S2_20dependent_expr_stateEEv(ptr noundef nonnull align 1 dereferenceable(1) %this) #6 comdat align 2 {
entry:
  %this.addr = alloca ptr, align 8
  store ptr %this, ptr %this.addr, align 8
  ret ptr @_ZZ25mk_propagate_ineqs_tacticR11ast_managerRK10params_refENUlRT_RT0_RT1_E_8__invokeIS_S2_20dependent_expr_stateEEP25dependent_expr_simplifierS5_S7_S9_
}

; Function Attrs: mustprogress uwtable
define linkonce_odr hidden noundef ptr @_Z25mk_propagate_ineqs_tacticR11ast_managerRK10params_ref(ptr noundef nonnull align 8 dereferenceable(976) %m, ptr noundef nonnull align 8 dereferenceable(8) %p) #4 comdat {
entry:
  %m.addr = alloca ptr, align 8
  %p.addr = alloca ptr, align 8
  %ref.tmp = alloca %class.anon.94, align 1
  store ptr %m, ptr %m.addr, align 8
  store ptr %p, ptr %p.addr, align 8
  %call = call noalias noundef ptr @_ZN6memory8allocateEm(i64 noundef 352)
  %0 = load ptr, ptr %m.addr, align 8
  %1 = load ptr, ptr %p.addr, align 8
  %call1 = call noundef ptr @_ZZ25mk_propagate_ineqs_tacticR11ast_managerRK10params_refENKUlRT_RT0_RT1_E_cvPFP25dependent_expr_simplifierS5_S7_S9_EIS_S2_20dependent_expr_stateEEv(ptr noundef nonnull align 1 dereferenceable(1) %ref.tmp) #3
  call void @_ZN27dependent_expr_state_tacticC2ER11ast_managerRK10params_refPFP25dependent_expr_simplifierS1_S4_R20dependent_expr_stateE(ptr noundef nonnull align 8 dereferenceable(345) %call, ptr noundef nonnull align 8 dereferenceable(976) %0, ptr noundef nonnull align 8 dereferenceable(8) %1, ptr noundef %call1)
  ret ptr %call
}

; Function Attrs: mustprogress nounwind uwtable
define linkonce_odr hidden void @_ZN10params_refC2Ev(ptr noundef nonnull align 8 dereferenceable(8) %this) unnamed_addr #6 comdat align 2 {
entry:
  %this.addr = alloca ptr, align 8
  store ptr %this, ptr %this.addr, align 8
  %this1 = load ptr, ptr %this.addr, align 8
  %m_params = getelementptr inbounds %class.params_ref, ptr %this1, i32 0, i32 0
  store ptr null, ptr %m_params, align 8
  ret void
}

; Function Attrs: mustprogress uwtable
define internal noundef ptr @_ZL17mk_lia2sat_tacticR11ast_manager(ptr noundef nonnull align 8 dereferenceable(976) %m) #4 personality ptr @__gxx_personality_v0 {
entry:
  %m.addr = alloca ptr, align 8
  %pb2bv_p = alloca %class.params_ref, align 8
  %exn.slot = alloca ptr, align 8
  %ehselector.slot = alloca i32, align 4
  %bv2sat_p = alloca %class.params_ref, align 8
  %ref.tmp = alloca %class.params_ref, align 8
  %ref.tmp19 = alloca %class.params_ref, align 8
  %ref.tmp24 = alloca %class.params_ref, align 8
  %ref.tmp29 = alloca %class.params_ref, align 8
  store ptr %m, ptr %m.addr, align 8
  call void @_ZN10params_refC2Ev(ptr noundef nonnull align 8 dereferenceable(8) %pb2bv_p)
  invoke void @_ZN10params_ref8set_uintEPKcj(ptr noundef nonnull align 8 dereferenceable(8) %pb2bv_p, ptr noundef @.str.31, i32 noundef 8)
          to label %invoke.cont unwind label %lpad

invoke.cont:                                      ; preds = %entry
  invoke void @_ZN10params_refC2Ev(ptr noundef nonnull align 8 dereferenceable(8) %bv2sat_p)
          to label %invoke.cont1 unwind label %lpad

invoke.cont1:                                     ; preds = %invoke.cont
  invoke void @_ZN10params_ref8set_boolEPKcb(ptr noundef nonnull align 8 dereferenceable(8) %bv2sat_p, ptr noundef @.str.32, i1 noundef zeroext true)
          to label %invoke.cont3 unwind label %lpad2

invoke.cont3:                                     ; preds = %invoke.cont1
  %call = invoke noundef ptr @_Z21mk_is_unbounded_probev()
          to label %invoke.cont4 unwind label %lpad2

invoke.cont4:                                     ; preds = %invoke.cont3
  %call6 = invoke noundef ptr @_Z7fail_ifP5probe(ptr noundef %call)
          to label %invoke.cont5 unwind label %lpad2

invoke.cont5:                                     ; preds = %invoke.cont4
  %call8 = invoke noundef ptr @_Z23mk_produce_proofs_probev()
          to label %invoke.cont7 unwind label %lpad2

invoke.cont7:                                     ; preds = %invoke.cont5
  %call10 = invoke noundef ptr @_Z7fail_ifP5probe(ptr noundef %call8)
          to label %invoke.cont9 unwind label %lpad2

invoke.cont9:                                     ; preds = %invoke.cont7
  %call12 = invoke noundef ptr @_Z28mk_produce_unsat_cores_probev()
          to label %invoke.cont11 unwind label %lpad2

invoke.cont11:                                    ; preds = %invoke.cont9
  %call14 = invoke noundef ptr @_Z7fail_ifP5probe(ptr noundef %call12)
          to label %invoke.cont13 unwind label %lpad2

invoke.cont13:                                    ; preds = %invoke.cont11
  %0 = load ptr, ptr %m.addr, align 8
  invoke void @_ZN10params_refC2Ev(ptr noundef nonnull align 8 dereferenceable(8) %ref.tmp)
          to label %invoke.cont15 unwind label %lpad2

invoke.cont15:                                    ; preds = %invoke.cont13
  %call18 = invoke noundef ptr @_Z25mk_propagate_ineqs_tacticR11ast_managerRK10params_ref(ptr noundef nonnull align 8 dereferenceable(976) %0, ptr noundef nonnull align 8 dereferenceable(8) %ref.tmp)
          to label %invoke.cont17 unwind label %lpad16

invoke.cont17:                                    ; preds = %invoke.cont15
  %1 = load ptr, ptr %m.addr, align 8
  invoke void @_ZN10params_refC2Ev(ptr noundef nonnull align 8 dereferenceable(8) %ref.tmp19)
          to label %invoke.cont20 unwind label %lpad16

invoke.cont20:                                    ; preds = %invoke.cont17
  %call23 = invoke noundef ptr @_Z26mk_normalize_bounds_tacticR11ast_managerRK10params_ref(ptr noundef nonnull align 8 dereferenceable(976) %1, ptr noundef nonnull align 8 dereferenceable(8) %ref.tmp19)
          to label %invoke.cont22 unwind label %lpad21

invoke.cont22:                                    ; preds = %invoke.cont20
  %2 = load ptr, ptr %m.addr, align 8
  invoke void @_ZN10params_refC2Ev(ptr noundef nonnull align 8 dereferenceable(8) %ref.tmp24)
          to label %invoke.cont25 unwind label %lpad21

invoke.cont25:                                    ; preds = %invoke.cont22
  %call28 = invoke noundef ptr @_Z16mk_lia2pb_tacticR11ast_managerRK10params_ref(ptr noundef nonnull align 8 dereferenceable(976) %2, ptr noundef nonnull align 8 dereferenceable(8) %ref.tmp24)
          to label %invoke.cont27 unwind label %lpad26

invoke.cont27:                                    ; preds = %invoke.cont25
  %3 = load ptr, ptr %m.addr, align 8
  invoke void @_ZN10params_refC2Ev(ptr noundef nonnull align 8 dereferenceable(8) %ref.tmp29)
          to label %invoke.cont30 unwind label %lpad26

invoke.cont30:                                    ; preds = %invoke.cont27
  %call33 = invoke noundef ptr @_Z15mk_pb2bv_tacticR11ast_managerRK10params_ref(ptr noundef nonnull align 8 dereferenceable(976) %3, ptr noundef nonnull align 8 dereferenceable(8) %ref.tmp29)
          to label %invoke.cont32 unwind label %lpad31

invoke.cont32:                                    ; preds = %invoke.cont30
  %call35 = invoke noundef ptr @_Z12using_paramsP6tacticRK10params_ref(ptr noundef %call33, ptr noundef nonnull align 8 dereferenceable(8) %pb2bv_p)
          to label %invoke.cont34 unwind label %lpad31

invoke.cont34:                                    ; preds = %invoke.cont32
  %call37 = invoke noundef ptr @_Z16mk_is_qfbv_probev()
          to label %invoke.cont36 unwind label %lpad31

invoke.cont36:                                    ; preds = %invoke.cont34
  %call39 = invoke noundef ptr @_Z11fail_if_notP5probe(ptr noundef %call37)
          to label %invoke.cont38 unwind label %lpad31

invoke.cont38:                                    ; preds = %invoke.cont36
  %4 = load ptr, ptr %m.addr, align 8
  %call41 = invoke noundef ptr @_ZL16mk_bv2sat_tacticR11ast_manager(ptr noundef nonnull align 8 dereferenceable(976) %4)
          to label %invoke.cont40 unwind label %lpad31

invoke.cont40:                                    ; preds = %invoke.cont38
  %call43 = invoke noundef ptr @_Z12using_paramsP6tacticRK10params_ref(ptr noundef %call41, ptr noundef nonnull align 8 dereferenceable(8) %bv2sat_p)
          to label %invoke.cont42 unwind label %lpad31

invoke.cont42:                                    ; preds = %invoke.cont40
  %call45 = invoke noundef ptr @_Z8and_thenP6tacticS0_S0_S0_S0_S0_S0_S0_S0_(ptr noundef %call6, ptr noundef %call10, ptr noundef %call14, ptr noundef %call18, ptr noundef %call23, ptr noundef %call28, ptr noundef %call35, ptr noundef %call39, ptr noundef %call43)
          to label %invoke.cont44 unwind label %lpad31

invoke.cont44:                                    ; preds = %invoke.cont42
  %call47 = invoke noundef ptr @_Z15annotate_tacticPKcP6tactic(ptr noundef @.str.37, ptr noundef %call45)
          to label %invoke.cont46 unwind label %lpad31

invoke.cont46:                                    ; preds = %invoke.cont44
  call void @_ZN10params_refD1Ev(ptr noundef nonnull align 8 dereferenceable(8) %ref.tmp29) #3
  call void @_ZN10params_refD1Ev(ptr noundef nonnull align 8 dereferenceable(8) %ref.tmp24) #3
  call void @_ZN10params_refD1Ev(ptr noundef nonnull align 8 dereferenceable(8) %ref.tmp19) #3
  call void @_ZN10params_refD1Ev(ptr noundef nonnull align 8 dereferenceable(8) %ref.tmp) #3
  call void @_ZN10params_refD1Ev(ptr noundef nonnull align 8 dereferenceable(8) %bv2sat_p) #3
  call void @_ZN10params_refD1Ev(ptr noundef nonnull align 8 dereferenceable(8) %pb2bv_p) #3
  ret ptr %call47

lpad:                                             ; preds = %invoke.cont, %entry
  %5 = landingpad { ptr, i32 }
          cleanup
  %6 = extractvalue { ptr, i32 } %5, 0
  store ptr %6, ptr %exn.slot, align 8
  %7 = extractvalue { ptr, i32 } %5, 1
  store i32 %7, ptr %ehselector.slot, align 4
  br label %ehcleanup51

lpad2:                                            ; preds = %invoke.cont13, %invoke.cont11, %invoke.cont9, %invoke.cont7, %invoke.cont5, %invoke.cont4, %invoke.cont3, %invoke.cont1
  %8 = landingpad { ptr, i32 }
          cleanup
  %9 = extractvalue { ptr, i32 } %8, 0
  store ptr %9, ptr %exn.slot, align 8
  %10 = extractvalue { ptr, i32 } %8, 1
  store i32 %10, ptr %ehselector.slot, align 4
  br label %ehcleanup50

lpad16:                                           ; preds = %invoke.cont17, %invoke.cont15
  %11 = landingpad { ptr, i32 }
          cleanup
  %12 = extractvalue { ptr, i32 } %11, 0
  store ptr %12, ptr %exn.slot, align 8
  %13 = extractvalue { ptr, i32 } %11, 1
  store i32 %13, ptr %ehselector.slot, align 4
  br label %ehcleanup49

lpad21:                                           ; preds = %invoke.cont22, %invoke.cont20
  %14 = landingpad { ptr, i32 }
          cleanup
  %15 = extractvalue { ptr, i32 } %14, 0
  store ptr %15, ptr %exn.slot, align 8
  %16 = extractvalue { ptr, i32 } %14, 1
  store i32 %16, ptr %ehselector.slot, align 4
  br label %ehcleanup48

lpad26:                                           ; preds = %invoke.cont27, %invoke.cont25
  %17 = landingpad { ptr, i32 }
          cleanup
  %18 = extractvalue { ptr, i32 } %17, 0
  store ptr %18, ptr %exn.slot, align 8
  %19 = extractvalue { ptr, i32 } %17, 1
  store i32 %19, ptr %ehselector.slot, align 4
  br label %ehcleanup

lpad31:                                           ; preds = %invoke.cont44, %invoke.cont42, %invoke.cont40, %invoke.cont38, %invoke.cont36, %invoke.cont34, %invoke.cont32, %invoke.cont30
  %20 = landingpad { ptr, i32 }
          cleanup
  %21 = extractvalue { ptr, i32 } %20, 0
  store ptr %21, ptr %exn.slot, align 8
  %22 = extractvalue { ptr, i32 } %20, 1
  store i32 %22, ptr %ehselector.slot, align 4
  call void @_ZN10params_refD1Ev(ptr noundef nonnull align 8 dereferenceable(8) %ref.tmp29) #3
  br label %ehcleanup

ehcleanup:                                        ; preds = %lpad31, %lpad26
  call void @_ZN10params_refD1Ev(ptr noundef nonnull align 8 dereferenceable(8) %ref.tmp24) #3
  br label %ehcleanup48

ehcleanup48:                                      ; preds = %ehcleanup, %lpad21
  call void @_ZN10params_refD1Ev(ptr noundef nonnull align 8 dereferenceable(8) %ref.tmp19) #3
  br label %ehcleanup49

ehcleanup49:                                      ; preds = %ehcleanup48, %lpad16
  call void @_ZN10params_refD1Ev(ptr noundef nonnull align 8 dereferenceable(8) %ref.tmp) #3
  br label %ehcleanup50

ehcleanup50:                                      ; preds = %ehcleanup49, %lpad2
  call void @_ZN10params_refD1Ev(ptr noundef nonnull align 8 dereferenceable(8) %bv2sat_p) #3
  br label %ehcleanup51

ehcleanup51:                                      ; preds = %ehcleanup50, %lpad
  call void @_ZN10params_refD1Ev(ptr noundef nonnull align 8 dereferenceable(8) %pb2bv_p) #3
  br label %eh.resume

eh.resume:                                        ; preds = %ehcleanup51
  %exn = load ptr, ptr %exn.slot, align 8
  %sel = load i32, ptr %ehselector.slot, align 4
  %lpad.val = insertvalue { ptr, i32 } poison, ptr %exn, 0
  %lpad.val52 = insertvalue { ptr, i32 } %lpad.val, i32 %sel, 1
  resume { ptr, i32 } %lpad.val52
}