; Function Attrs: mustprogress uwtable
define internal fastcc noundef ptr @_ZL17mk_lia2sat_tacticR11ast_manager(ptr noundef nonnull align 8 dereferenceable(976) %m) unnamed_addr #3 personality ptr @__gxx_personality_v0 {
entry:
  %pb2bv_p = alloca %class.params_ref, align 8
  %bv2sat_p = alloca %class.params_ref, align 8
  %ref.tmp = alloca %class.params_ref, align 8
  %ref.tmp19 = alloca %class.params_ref, align 8
  %ref.tmp24 = alloca %class.params_ref, align 8
  %ref.tmp29 = alloca %class.params_ref, align 8
  store ptr null, ptr %pb2bv_p, align 8
  invoke void @_ZN10params_ref8set_uintEPKcj(ptr noundef nonnull align 8 dereferenceable(8) %pb2bv_p, ptr noundef nonnull @.str.31, i32 noundef 8)
          to label %invoke.cont unwind label %lpad

invoke.cont:                                      ; preds = %entry
  store ptr null, ptr %bv2sat_p, align 8
  invoke void @_ZN10params_ref8set_boolEPKcb(ptr noundef nonnull align 8 dereferenceable(8) %bv2sat_p, ptr noundef nonnull @.str.32, i1 noundef zeroext true)
          to label %invoke.cont3 unwind label %lpad2

invoke.cont3:                                     ; preds = %invoke.cont
  %call = invoke noundef ptr @_Z21mk_is_unbounded_probev()
          to label %invoke.cont4 unwind label %lpad2

invoke.cont4:                                     ; preds = %invoke.cont3
  %call6 = invoke noundef ptr @_Z7fail_ifP5probe(ptr noundef %call)
          to label %invoke.cont5 unwind label %lpad2

invoke.cont5:                                     ; preds = %invoke.cont4
  %call8 = invoke noundef ptr @_Z23mk_produce_proofs_probev()
          to label %invoke.cont7 unwind label %lpad2

invoke.cont7:                                     ; preds = %invoke.cont5
  %call10 = invoke noundef ptr @_Z7fail_ifP5probe(ptr noundef %call8)
          to label %invoke.cont9 unwind label %lpad2

invoke.cont9:                                     ; preds = %invoke.cont7
  %call12 = invoke noundef ptr @_Z28mk_produce_unsat_cores_probev()
          to label %invoke.cont11 unwind label %lpad2

invoke.cont11:                                    ; preds = %invoke.cont9
  %call14 = invoke noundef ptr @_Z7fail_ifP5probe(ptr noundef %call12)
          to label %invoke.cont13 unwind label %lpad2

invoke.cont13:                                    ; preds = %invoke.cont11
  store ptr null, ptr %ref.tmp, align 8
  %call.i10 = invoke noalias noundef ptr @_ZN6memory8allocateEm(i64 noundef 352)
          to label %call.i.noexc unwind label %lpad16

call.i.noexc:                                     ; preds = %invoke.cont13
  invoke void @_ZN27dependent_expr_state_tacticC2ER11ast_managerRK10params_refPFP25dependent_expr_simplifierS1_S4_R20dependent_expr_stateE(ptr noundef nonnull align 8 dereferenceable(345) %call.i10, ptr noundef nonnull align 8 dereferenceable(976) %m, ptr noundef nonnull align 8 dereferenceable(8) %ref.tmp, ptr noundef nonnull @_ZZ25mk_propagate_ineqs_tacticR11ast_managerRK10params_refENUlRT_RT0_RT1_E_8__invokeIS_S2_20dependent_expr_stateEEP25dependent_expr_simplifierS5_S7_S9_)
          to label %invoke.cont17 unwind label %lpad16

invoke.cont17:                                    ; preds = %call.i.noexc
  store ptr null, ptr %ref.tmp19, align 8
  %call23 = invoke noundef ptr @_Z26mk_normalize_bounds_tacticR11ast_managerRK10params_ref(ptr noundef nonnull align 8 dereferenceable(976) %m, ptr noundef nonnull align 8 dereferenceable(8) %ref.tmp19)
          to label %invoke.cont22 unwind label %lpad21

invoke.cont22:                                    ; preds = %invoke.cont17
  store ptr null, ptr %ref.tmp24, align 8
  %call28 = invoke noundef ptr @_Z16mk_lia2pb_tacticR11ast_managerRK10params_ref(ptr noundef nonnull align 8 dereferenceable(976) %m, ptr noundef nonnull align 8 dereferenceable(8) %ref.tmp24)
          to label %invoke.cont27 unwind label %lpad26

invoke.cont27:                                    ; preds = %invoke.cont22
  store ptr null, ptr %ref.tmp29, align 8
  %call33 = invoke noundef ptr @_Z15mk_pb2bv_tacticR11ast_managerRK10params_ref(ptr noundef nonnull align 8 dereferenceable(976) %m, ptr noundef nonnull align 8 dereferenceable(8) %ref.tmp29)
          to label %invoke.cont32 unwind label %lpad31

invoke.cont32:                                    ; preds = %invoke.cont27
  %call35 = invoke noundef ptr @_Z12using_paramsP6tacticRK10params_ref(ptr noundef %call33, ptr noundef nonnull align 8 dereferenceable(8) %pb2bv_p)
          to label %invoke.cont34 unwind label %lpad31

invoke.cont34:                                    ; preds = %invoke.cont32
  %call37 = invoke noundef ptr @_Z16mk_is_qfbv_probev()
          to label %invoke.cont36 unwind label %lpad31

invoke.cont36:                                    ; preds = %invoke.cont34
  %call39 = invoke noundef ptr @_Z11fail_if_notP5probe(ptr noundef %call37)
          to label %invoke.cont38 unwind label %lpad31

invoke.cont38:                                    ; preds = %invoke.cont36
  %call41 = invoke fastcc noundef ptr @_ZL16mk_bv2sat_tacticR11ast_manager(ptr noundef nonnull align 8 dereferenceable(976) %m)
          to label %invoke.cont40 unwind label %lpad31

invoke.cont40:                                    ; preds = %invoke.cont38
  %call43 = invoke noundef ptr @_Z12using_paramsP6tacticRK10params_ref(ptr noundef %call41, ptr noundef nonnull align 8 dereferenceable(8) %bv2sat_p)
          to label %invoke.cont42 unwind label %lpad31

invoke.cont42:                                    ; preds = %invoke.cont40
  %call45 = invoke noundef ptr @_Z8and_thenP6tacticS0_S0_S0_S0_S0_S0_S0_S0_(ptr noundef %call6, ptr noundef %call10, ptr noundef %call14, ptr noundef nonnull %call.i10, ptr noundef %call23, ptr noundef %call28, ptr noundef %call35, ptr noundef %call39, ptr noundef %call43)
          to label %invoke.cont44 unwind label %lpad31

invoke.cont44:                                    ; preds = %invoke.cont42
  %call47 = invoke noundef ptr @_Z15annotate_tacticPKcP6tactic(ptr noundef nonnull @.str.37, ptr noundef %call45)
          to label %invoke.cont46 unwind label %lpad31

invoke.cont46:                                    ; preds = %invoke.cont44
  call void @_ZN10params_refD1Ev(ptr noundef nonnull align 8 dereferenceable(8) %ref.tmp29) #16
  call void @_ZN10params_refD1Ev(ptr noundef nonnull align 8 dereferenceable(8) %ref.tmp24) #16
  call void @_ZN10params_refD1Ev(ptr noundef nonnull align 8 dereferenceable(8) %ref.tmp19) #16
  call void @_ZN10params_refD1Ev(ptr noundef nonnull align 8 dereferenceable(8) %ref.tmp) #16
  call void @_ZN10params_refD1Ev(ptr noundef nonnull align 8 dereferenceable(8) %bv2sat_p) #16
  call void @_ZN10params_refD1Ev(ptr noundef nonnull align 8 dereferenceable(8) %pb2bv_p) #16
  ret ptr %call47

lpad:                                             ; preds = %entry
  %0 = landingpad { ptr, i32 }
          cleanup
  br label %ehcleanup51

lpad2:                                            ; preds = %invoke.cont11, %invoke.cont9, %invoke.cont7, %invoke.cont5, %invoke.cont4, %invoke.cont3, %invoke.cont
  %1 = landingpad { ptr, i32 }
          cleanup
  br label %ehcleanup50

lpad16:                                           ; preds = %call.i.noexc, %invoke.cont13
  %2 = landingpad { ptr, i32 }
          cleanup
  br label %ehcleanup49

lpad21:                                           ; preds = %invoke.cont17
  %3 = landingpad { ptr, i32 }
          cleanup
  br label %ehcleanup48

lpad26:                                           ; preds = %invoke.cont22
  %4 = landingpad { ptr, i32 }
          cleanup
  br label %ehcleanup

lpad31:                                           ; preds = %invoke.cont44, %invoke.cont42, %invoke.cont40, %invoke.cont38, %invoke.cont36, %invoke.cont34, %invoke.cont32, %invoke.cont27
  %5 = landingpad { ptr, i32 }
          cleanup
  call void @_ZN10params_refD1Ev(ptr noundef nonnull align 8 dereferenceable(8) %ref.tmp29) #16
  br label %ehcleanup

ehcleanup:                                        ; preds = %lpad31, %lpad26
  %.pn = phi { ptr, i32 } [ %5, %lpad31 ], [ %4, %lpad26 ]
  call void @_ZN10params_refD1Ev(ptr noundef nonnull align 8 dereferenceable(8) %ref.tmp24) #16
  br label %ehcleanup48

ehcleanup48:                                      ; preds = %ehcleanup, %lpad21
  %.pn.pn = phi { ptr, i32 } [ %.pn, %ehcleanup ], [ %3, %lpad21 ]
  call void @_ZN10params_refD1Ev(ptr noundef nonnull align 8 dereferenceable(8) %ref.tmp19) #16
  br label %ehcleanup49

ehcleanup49:                                      ; preds = %ehcleanup48, %lpad16
  %.pn.pn.pn = phi { ptr, i32 } [ %.pn.pn, %ehcleanup48 ], [ %2, %lpad16 ]
  call void @_ZN10params_refD1Ev(ptr noundef nonnull align 8 dereferenceable(8) %ref.tmp) #16
  br label %ehcleanup50

ehcleanup50:                                      ; preds = %ehcleanup49, %lpad2
  %.pn.pn.pn.pn = phi { ptr, i32 } [ %.pn.pn.pn, %ehcleanup49 ], [ %1, %lpad2 ]
  call void @_ZN10params_refD1Ev(ptr noundef nonnull align 8 dereferenceable(8) %bv2sat_p) #16
  br label %ehcleanup51

ehcleanup51:                                      ; preds = %ehcleanup50, %lpad
  %.pn.pn.pn.pn.pn = phi { ptr, i32 } [ %.pn.pn.pn.pn, %ehcleanup50 ], [ %0, %lpad ]
  call void @_ZN10params_refD1Ev(ptr noundef nonnull align 8 dereferenceable(8) %pb2bv_p) #16
  resume { ptr, i32 } %.pn.pn.pn.pn.pn
}